---
triple:          'arm64-apple-darwin'
binary-path:     '/Users/prashantgurung/Programming/Data Structures/Red Black Trees/src/main'
relocations:
  - { offset: 0x3027, size: 0x8, addend: 0x0, symName: __ZNSt3__124__put_character_sequenceB8ne180100IcNS_11char_traitsIcEEEERNS_13basic_ostreamIT_T0_EES7_PKS4_m, symObjAddr: 0x3310, symBinAddr: 0x100006FBC, symSize: 0x1EC }
  - { offset: 0x3E97, size: 0x8, addend: 0x0, symName: __ZNSt3__1lsB8ne180100INS_11char_traitsIcEEEERNS_13basic_ostreamIcT_EES6_PKc, symObjAddr: 0x1064, symBinAddr: 0x100004D10, symSize: 0x48 }
  - { offset: 0x3EDD, size: 0x8, addend: 0x0, symName: __ZNSt3__14endlB8ne180100IcNS_11char_traitsIcEEEERNS_13basic_ostreamIT_T0_EES7_, symObjAddr: 0x10D8, symBinAddr: 0x100004D84, symSize: 0x58 }
  - { offset: 0x3F1D, size: 0x8, addend: 0x0, symName: __ZNSt3__116__pad_and_outputB8ne180100IcNS_11char_traitsIcEEEENS_19ostreambuf_iteratorIT_T0_EES6_PKS4_S8_S8_RNS_8ios_baseES4_, symObjAddr: 0x354C, symBinAddr: 0x1000071F8, symSize: 0x240 }
  - { offset: 0x3FEC, size: 0x8, addend: 0x0, symName: __ZNSt3__112__to_addressB8ne180100IKcEEPT_S3_, symObjAddr: 0x3AB4, symBinAddr: 0x100007760, symSize: 0x14 }
  - { offset: 0x4054, size: 0x8, addend: 0x0, symName: __ZNSt3__19use_facetB8ne180100INS_5ctypeIcEEEERKT_RKNS_6localeE, symObjAddr: 0x3D34, symBinAddr: 0x1000079E0, symSize: 0x2C }
  - { offset: 0x4521, size: 0x8, addend: 0x0, symName: __ZNSt3__118__constexpr_strlenB8ne180100EPKc, symObjAddr: 0x3DCC, symBinAddr: 0x100007A78, symSize: 0x24 }
  - { offset: 0x54EB, size: 0x8, addend: 0x0, symName: _main, symObjAddr: 0x0, symBinAddr: 0x100003CAC, symSize: 0xEF8 }
  - { offset: 0x5874, size: 0x8, addend: 0x0, symName: __ZN6RBTreeC1Ei, symObjAddr: 0xEF8, symBinAddr: 0x100004BA4, symSize: 0x34 }
  - { offset: 0x58AA, size: 0x8, addend: 0x0, symName: __ZN6RBTree10insertNodeEi, symObjAddr: 0xF2C, symBinAddr: 0x100004BD8, symSize: 0xC8 }
  - { offset: 0x58DC, size: 0x8, addend: 0x0, symName: __ZN6RBTree5printEv, symObjAddr: 0xFF4, symBinAddr: 0x100004CA0, symSize: 0x70 }
  - { offset: 0x5900, size: 0x8, addend: 0x0, symName: __ZNSt3__113basic_ostreamIcNS_11char_traitsIcEEElsB8ne180100EPFRS3_S4_E, symObjAddr: 0x10AC, symBinAddr: 0x100004D58, symSize: 0x2C }
  - { offset: 0x5932, size: 0x8, addend: 0x0, symName: __ZN6RBTree9deleteValEi, symObjAddr: 0x1130, symBinAddr: 0x100004DDC, symSize: 0xC2C }
  - { offset: 0x5A37, size: 0x8, addend: 0x0, symName: __ZN6RBTree4findEi, symObjAddr: 0x1D5C, symBinAddr: 0x100005A08, symSize: 0xB0 }
  - { offset: 0x5A77, size: 0x8, addend: 0x0, symName: __ZN6RBTreeD1Ev, symObjAddr: 0x1E0C, symBinAddr: 0x100005AB8, symSize: 0x2C }
  - { offset: 0x5A9F, size: 0x8, addend: 0x0, symName: __ZN6RBTreeC2Ei, symObjAddr: 0x1E38, symBinAddr: 0x100005AE4, symSize: 0x88 }
  - { offset: 0x5AD5, size: 0x8, addend: 0x0, symName: __ZN4nodeC1Ei, symObjAddr: 0x1EC0, symBinAddr: 0x100005B6C, symSize: 0x34 }
  - { offset: 0x5B0B, size: 0x8, addend: 0x0, symName: __ZN4nodeC2Ei, symObjAddr: 0x1EF4, symBinAddr: 0x100005BA0, symSize: 0x2C }
  - { offset: 0x5B41, size: 0x8, addend: 0x0, symName: __ZN6RBTree10insertNodeEP4nodei, symObjAddr: 0x1F20, symBinAddr: 0x100005BCC, symSize: 0x2E0 }
  - { offset: 0x5BD5, size: 0x8, addend: 0x0, symName: __ZN6RBTree7update2EP4nodeS1_S1_, symObjAddr: 0x2200, symBinAddr: 0x100005EAC, symSize: 0x250 }
  - { offset: 0x5CCB, size: 0x8, addend: 0x0, symName: __ZN6RBTree8findCaseEP4nodeS1_, symObjAddr: 0x2450, symBinAddr: 0x1000060FC, symSize: 0xAC }
  - { offset: 0x5D0B, size: 0x8, addend: 0x0, symName: __ZN6RBTree17rightleftRotationEP4nodeS1_, symObjAddr: 0x24FC, symBinAddr: 0x1000061A8, symSize: 0x64 }
  - { offset: 0x5D4D, size: 0x8, addend: 0x0, symName: __ZN6RBTree14rightrightCaseEP4nodeS1_, symObjAddr: 0x2560, symBinAddr: 0x10000620C, symSize: 0x108 }
  - { offset: 0x5DB7, size: 0x8, addend: 0x0, symName: __ZN6RBTree17leftrightRotationEP4nodeS1_, symObjAddr: 0x2668, symBinAddr: 0x100006314, symSize: 0x64 }
  - { offset: 0x5DF9, size: 0x8, addend: 0x0, symName: __ZN6RBTree12leftleftCaseEP4nodeS1_, symObjAddr: 0x26CC, symBinAddr: 0x100006378, symSize: 0x108 }
  - { offset: 0x5E67, size: 0x8, addend: 0x0, symName: __ZN6RBTree5printEP4nodei, symObjAddr: 0x27D4, symBinAddr: 0x100006480, symSize: 0x12C }
  - { offset: 0x5EC6, size: 0x8, addend: 0x0, symName: __ZN4node10color_nameEv, symObjAddr: 0x2900, symBinAddr: 0x1000065AC, symSize: 0x4C }
  - { offset: 0x5EEA, size: 0x8, addend: 0x0, symName: __ZN6RBTree19getInorderSuccessorEP4node, symObjAddr: 0x294C, symBinAddr: 0x1000065F8, symSize: 0x50 }
  - { offset: 0x5F2C, size: 0x8, addend: 0x0, symName: __ZN6RBTree12delete_fixupEP4nodeS1_, symObjAddr: 0x299C, symBinAddr: 0x100006648, symSize: 0x668 }
  - { offset: 0x5FA8, size: 0x8, addend: 0x0, symName: __ZN6RBTree12leftRotationEP4nodeS1_, symObjAddr: 0x3004, symBinAddr: 0x100006CB0, symSize: 0x120 }
  - { offset: 0x6016, size: 0x8, addend: 0x0, symName: __ZN6RBTree13rightRotationEP4nodeS1_, symObjAddr: 0x3124, symBinAddr: 0x100006DD0, symSize: 0x120 }
  - { offset: 0x6084, size: 0x8, addend: 0x0, symName: __ZN6RBTreeD2Ev, symObjAddr: 0x3244, symBinAddr: 0x100006EF0, symSize: 0x38 }
  - { offset: 0x60AC, size: 0x8, addend: 0x0, symName: __ZN6RBTree10deleteTreeEP4node, symObjAddr: 0x327C, symBinAddr: 0x100006F28, symSize: 0x84 }
  - { offset: 0x60DF, size: 0x8, addend: 0x0, symName: __ZNSt3__111char_traitsIcE6lengthB8ne180100EPKc, symObjAddr: 0x34FC, symBinAddr: 0x1000071A8, symSize: 0x34 }
  - { offset: 0x611F, size: 0x8, addend: 0x0, symName: __ZNKSt3__113basic_ostreamIcNS_11char_traitsIcEEE6sentrycvbB8ne180100Ev, symObjAddr: 0x3530, symBinAddr: 0x1000071DC, symSize: 0x1C }
  - { offset: 0x6143, size: 0x8, addend: 0x0, symName: __ZNSt3__119ostreambuf_iteratorIcNS_11char_traitsIcEEEC1B8ne180100ERNS_13basic_ostreamIcS2_EE, symObjAddr: 0x378C, symBinAddr: 0x100007438, symSize: 0x34 }
  - { offset: 0x6179, size: 0x8, addend: 0x0, symName: __ZNKSt3__18ios_base5flagsB8ne180100Ev, symObjAddr: 0x37C0, symBinAddr: 0x10000746C, symSize: 0x18 }
  - { offset: 0x619F, size: 0x8, addend: 0x0, symName: __ZNKSt3__19basic_iosIcNS_11char_traitsIcEEE4fillB8ne180100Ev, symObjAddr: 0x37D8, symBinAddr: 0x100007484, symSize: 0x64 }
  - { offset: 0x61C5, size: 0x8, addend: 0x0, symName: __ZNKSt3__119ostreambuf_iteratorIcNS_11char_traitsIcEEE6failedB8ne180100Ev, symObjAddr: 0x383C, symBinAddr: 0x1000074E8, symSize: 0x24 }
  - { offset: 0x61E9, size: 0x8, addend: 0x0, symName: __ZNSt3__19basic_iosIcNS_11char_traitsIcEEE8setstateB8ne180100Ej, symObjAddr: 0x3860, symBinAddr: 0x10000750C, symSize: 0x2C }
  - { offset: 0x621C, size: 0x8, addend: 0x0, symName: __ZNKSt3__18ios_base5widthB8ne180100Ev, symObjAddr: 0x388C, symBinAddr: 0x100007538, symSize: 0x18 }
  - { offset: 0x6242, size: 0x8, addend: 0x0, symName: __ZNSt3__115basic_streambufIcNS_11char_traitsIcEEE5sputnB8ne180100EPKcl, symObjAddr: 0x38A4, symBinAddr: 0x100007550, symSize: 0x3C }
  - { offset: 0x6282, size: 0x8, addend: 0x0, symName: __ZNSt3__112basic_stringIcNS_11char_traitsIcEENS_9allocatorIcEEEC1B8ne180100Emc, symObjAddr: 0x38E0, symBinAddr: 0x10000758C, symSize: 0x3C }
  - { offset: 0x62C8, size: 0x8, addend: 0x0, symName: __ZNKSt3__112basic_stringIcNS_11char_traitsIcEENS_9allocatorIcEEE4dataB8ne180100Ev, symObjAddr: 0x391C, symBinAddr: 0x1000075C8, symSize: 0x28 }
  - { offset: 0x62EC, size: 0x8, addend: 0x0, symName: __ZNSt3__18ios_base5widthB8ne180100El, symObjAddr: 0x3944, symBinAddr: 0x1000075F0, symSize: 0x2C }
  - { offset: 0x6330, size: 0x8, addend: 0x0, symName: __ZNSt3__112basic_stringIcNS_11char_traitsIcEENS_9allocatorIcEEEC2B8ne180100Emc, symObjAddr: 0x3970, symBinAddr: 0x10000761C, symSize: 0x4C }
  - { offset: 0x637B, size: 0x8, addend: 0x0, symName: __ZNSt3__117__compressed_pairINS_12basic_stringIcNS_11char_traitsIcEENS_9allocatorIcEEE5__repES5_EC1B8ne180100INS_18__default_init_tagESA_EEOT_OT0_, symObjAddr: 0x39BC, symBinAddr: 0x100007668, symSize: 0x3C }
  - { offset: 0x63D1, size: 0x8, addend: 0x0, symName: __ZNSt3__117__compressed_pairINS_12basic_stringIcNS_11char_traitsIcEENS_9allocatorIcEEE5__repES5_EC2B8ne180100INS_18__default_init_tagESA_EEOT_OT0_, symObjAddr: 0x39F8, symBinAddr: 0x1000076A4, symSize: 0x3C }
  - { offset: 0x6427, size: 0x8, addend: 0x0, symName: __ZNSt3__122__compressed_pair_elemINS_12basic_stringIcNS_11char_traitsIcEENS_9allocatorIcEEE5__repELi0ELb0EEC2B8ne180100ENS_18__default_init_tagE, symObjAddr: 0x3A34, symBinAddr: 0x1000076E0, symSize: 0x14 }
  - { offset: 0x6459, size: 0x8, addend: 0x0, symName: __ZNSt3__122__compressed_pair_elemINS_9allocatorIcEELi1ELb1EEC2B8ne180100ENS_18__default_init_tagE, symObjAddr: 0x3A48, symBinAddr: 0x1000076F4, symSize: 0x2C }
  - { offset: 0x648B, size: 0x8, addend: 0x0, symName: __ZNSt3__19allocatorIcEC2B8ne180100Ev, symObjAddr: 0x3A74, symBinAddr: 0x100007720, symSize: 0x2C }
  - { offset: 0x64B3, size: 0x8, addend: 0x0, symName: __ZNSt3__116__non_trivial_ifILb1ENS_9allocatorIcEEEC2B8ne180100Ev, symObjAddr: 0x3AA0, symBinAddr: 0x10000774C, symSize: 0x14 }
  - { offset: 0x64DB, size: 0x8, addend: 0x0, symName: __ZNKSt3__112basic_stringIcNS_11char_traitsIcEENS_9allocatorIcEEE13__get_pointerB8ne180100Ev, symObjAddr: 0x3AC8, symBinAddr: 0x100007774, symSize: 0x54 }
  - { offset: 0x64FF, size: 0x8, addend: 0x0, symName: __ZNKSt3__112basic_stringIcNS_11char_traitsIcEENS_9allocatorIcEEE9__is_longB8ne180100Ev, symObjAddr: 0x3B1C, symBinAddr: 0x1000077C8, symSize: 0x38 }
  - { offset: 0x6523, size: 0x8, addend: 0x0, symName: __ZNKSt3__112basic_stringIcNS_11char_traitsIcEENS_9allocatorIcEEE18__get_long_pointerB8ne180100Ev, symObjAddr: 0x3B54, symBinAddr: 0x100007800, symSize: 0x28 }
  - { offset: 0x6547, size: 0x8, addend: 0x0, symName: __ZNKSt3__112basic_stringIcNS_11char_traitsIcEENS_9allocatorIcEEE19__get_short_pointerB8ne180100Ev, symObjAddr: 0x3B7C, symBinAddr: 0x100007828, symSize: 0x28 }
  - { offset: 0x656B, size: 0x8, addend: 0x0, symName: __ZNKSt3__117__compressed_pairINS_12basic_stringIcNS_11char_traitsIcEENS_9allocatorIcEEE5__repES5_E5firstB8ne180100Ev, symObjAddr: 0x3BA4, symBinAddr: 0x100007850, symSize: 0x24 }
  - { offset: 0x658F, size: 0x8, addend: 0x0, symName: __ZNKSt3__122__compressed_pair_elemINS_12basic_stringIcNS_11char_traitsIcEENS_9allocatorIcEEE5__repELi0ELb0EE5__getB8ne180100Ev, symObjAddr: 0x3BC8, symBinAddr: 0x100007874, symSize: 0x14 }
  - { offset: 0x65B3, size: 0x8, addend: 0x0, symName: __ZNSt3__114pointer_traitsIPKcE10pointer_toB8ne180100ERS1_, symObjAddr: 0x3BDC, symBinAddr: 0x100007888, symSize: 0x14 }
  - { offset: 0x65D5, size: 0x8, addend: 0x0, symName: __ZNSt3__119ostreambuf_iteratorIcNS_11char_traitsIcEEEC2B8ne180100ERNS_13basic_ostreamIcS2_EE, symObjAddr: 0x3BF0, symBinAddr: 0x10000789C, symSize: 0x54 }
  - { offset: 0x660B, size: 0x8, addend: 0x0, symName: __ZNKSt3__19basic_iosIcNS_11char_traitsIcEEE5rdbufB8ne180100Ev, symObjAddr: 0x3C44, symBinAddr: 0x1000078F0, symSize: 0x24 }
  - { offset: 0x6631, size: 0x8, addend: 0x0, symName: __ZNKSt3__18ios_base5rdbufB8ne180100Ev, symObjAddr: 0x3C68, symBinAddr: 0x100007914, symSize: 0x18 }
  - { offset: 0x6655, size: 0x8, addend: 0x0, symName: __ZNSt3__111char_traitsIcE11eq_int_typeB8ne180100Eii, symObjAddr: 0x3C80, symBinAddr: 0x10000792C, symSize: 0x28 }
  - { offset: 0x6687, size: 0x8, addend: 0x0, symName: __ZNSt3__111char_traitsIcE3eofB8ne180100Ev, symObjAddr: 0x3CA8, symBinAddr: 0x100007954, symSize: 0x8 }
  - { offset: 0x669A, size: 0x8, addend: 0x0, symName: __ZNKSt3__19basic_iosIcNS_11char_traitsIcEEE5widenB8ne180100Ec, symObjAddr: 0x3CB0, symBinAddr: 0x10000795C, symSize: 0x84 }
  - { offset: 0x6711, size: 0x8, addend: 0x0, symName: __ZNKSt3__15ctypeIcE5widenB8ne180100Ec, symObjAddr: 0x3D60, symBinAddr: 0x100007A0C, symSize: 0x38 }
  - { offset: 0x6744, size: 0x8, addend: 0x0, symName: __ZNSt3__18ios_base8setstateB8ne180100Ej, symObjAddr: 0x3D98, symBinAddr: 0x100007A44, symSize: 0x34 }
...
